; Function Attrs: nounwind uwtable
define void @LzmaDec_Free(ptr nocapture noundef %0, ptr noundef %1) local_unnamed_addr #4 {
  %3 = getelementptr inbounds i8, ptr %1, i64 8
  %4 = load ptr, ptr %3, align 8
  %5 = getelementptr inbounds i8, ptr %0, i64 16
  %6 = load ptr, ptr %5, align 8
  tail call void %4(ptr noundef %1, ptr noundef %6) #7
  store ptr null, ptr %5, align 8
  %7 = load ptr, ptr %3, align 8
  %8 = getelementptr inbounds i8, ptr %0, i64 24
  %9 = load ptr, ptr %8, align 8
  tail call void %7(ptr noundef %1, ptr noundef %9) #7
  store ptr null, ptr %8, align 8
  ret void
}